target datalayout = "e-m:e-p270:32:32-p271:32:32-p272:64:64-i64:64-i128:128-f80:128-n8:16:32:64-S128"
target triple = "x86_64-pc-linux-gnu"

%struct.h5tools_str_t = type { ptr, i64, i64 }
%struct.h5tools_context_t = type { i64, i64, i32, i32, [32 x i64], [32 x i64], i32, i64, i32, i64, i32, i32, [32 x i64], [32 x i64], i64, ptr, ptr, i32, i32 }
%struct.h5tool_format_t = type { i8, ptr, ptr, ptr, ptr, ptr, ptr, ptr, ptr, ptr, ptr, ptr, ptr, ptr, ptr, ptr, ptr, ptr, i32, i32, i32, ptr, ptr, ptr, i32, ptr, ptr, ptr, ptr, ptr, ptr, ptr, ptr, ptr, ptr, ptr, ptr, ptr, ptr, ptr, ptr, i32, i64, ptr, ptr, ptr, ptr, ptr, i32, ptr, i32, i32, ptr, i32, ptr, ptr, ptr, ptr, i32, i32 }

@.str.88 = private unnamed_addr constant [1 x i8] zeroinitializer, align 1

; Function Attrs: nounwind uwtable
define void @h5tools_simple_prefix(ptr noundef %0, ptr noundef %1, ptr noundef %2, i64 noundef %3, i32 noundef %4) #0 {
  %6 = alloca ptr, align 8
  %7 = alloca ptr, align 8
  %8 = alloca ptr, align 8
  %9 = alloca i64, align 8
  %10 = alloca i32, align 4
  %11 = alloca %struct.h5tools_str_t, align 8
  %12 = alloca %struct.h5tools_str_t, align 8
  %13 = alloca i64, align 8
  %14 = alloca i32, align 4
  %15 = alloca i32, align 4
  %16 = alloca i32, align 4
  store ptr %0, ptr %6, align 8, !tbaa !9
  store ptr %1, ptr %7, align 8, !tbaa !36
  store ptr %2, ptr %8, align 8, !tbaa !38
  store i64 %3, ptr %9, align 8, !tbaa !7
  store i32 %4, ptr %10, align 4, !tbaa !3
  call void @llvm.lifetime.start.p0(i64 24, ptr %11) #10
  call void @llvm.lifetime.start.p0(i64 24, ptr %12) #10
  call void @llvm.lifetime.start.p0(i64 8, ptr %13) #10
  store i64 0, ptr %13, align 8, !tbaa !7
  call void @llvm.lifetime.start.p0(i64 4, ptr %14) #10
  call void @llvm.lifetime.start.p0(i64 4, ptr %15) #10
  store i32 0, ptr %15, align 4, !tbaa !3
  %17 = load ptr, ptr %6, align 8, !tbaa !9
  %18 = icmp eq ptr %17, null
  br i1 %18, label %19, label %20

19:                                               ; preds = %5
  store i32 1, ptr %16, align 4
  br label %252

20:                                               ; preds = %5
  %21 = load ptr, ptr %8, align 8, !tbaa !38
  %22 = getelementptr inbounds nuw %struct.h5tools_context_t, ptr %21, i32 0, i32 2
  %23 = load i32, ptr %22, align 8, !tbaa !40
  %24 = icmp ne i32 %23, 0
  br i1 %24, label %26, label %25

25:                                               ; preds = %20
  store i32 1, ptr %16, align 4
  br label %252

26:                                               ; preds = %20
  br label %27

27:                                               ; preds = %26
  br label %28

28:                                               ; preds = %27
  br label %29

29:                                               ; preds = %28
  call void @llvm.memset.p0.i64(ptr align 8 %11, i8 0, i64 24, i1 false)
  call void @llvm.memset.p0.i64(ptr align 8 %12, i8 0, i64 24, i1 false)
  br label %30

30:                                               ; preds = %29
  br label %31

31:                                               ; preds = %30
  br label %32

32:                                               ; preds = %31
  %33 = load ptr, ptr %8, align 8, !tbaa !38
  %34 = getelementptr inbounds nuw %struct.h5tools_context_t, ptr %33, i32 0, i32 0
  %35 = load i64, ptr %34, align 8, !tbaa !44
  %36 = icmp ne i64 %35, 0
  br i1 %36, label %37, label %80

37:                                               ; preds = %32
  br label %38

38:                                               ; preds = %37
  %39 = load ptr, ptr %6, align 8, !tbaa !9
  %40 = icmp ne ptr %39, null
  br i1 %40, label %41, label %55

41:                                               ; preds = %38
  %42 = load ptr, ptr %7, align 8, !tbaa !36
  %43 = getelementptr inbounds nuw %struct.h5tool_format_t, ptr %42, i32 0, i32 46
  %44 = load ptr, ptr %43, align 8, !tbaa !45
  %45 = icmp ne ptr %44, null
  br i1 %45, label %46, label %50

46:                                               ; preds = %41
  %47 = load ptr, ptr %7, align 8, !tbaa !36
  %48 = getelementptr inbounds nuw %struct.h5tool_format_t, ptr %47, i32 0, i32 46
  %49 = load ptr, ptr %48, align 8, !tbaa !45
  br label %51

50:                                               ; preds = %41
  br label %51

51:                                               ; preds = %50, %46
  %52 = phi ptr [ %49, %46 ], [ @.str.88, %50 ]
  %53 = load ptr, ptr %6, align 8, !tbaa !9
  %54 = call i32 @fputs(ptr noundef %52, ptr noundef %53)
  br label %55

55:                                               ; preds = %51, %38
  br label %56

56:                                               ; preds = %55
  br label %57

57:                                               ; preds = %56
  %58 = load ptr, ptr %6, align 8, !tbaa !9
  %59 = call i32 @putc(i32 noundef 10, ptr noundef %58)
  br label %60

60:                                               ; preds = %57
  %61 = load ptr, ptr %6, align 8, !tbaa !9
  %62 = icmp ne ptr %61, null
  br i1 %62, label %63, label %77

63:                                               ; preds = %60
  %64 = load ptr, ptr %7, align 8, !tbaa !36
  %65 = getelementptr inbounds nuw %struct.h5tool_format_t, ptr %64, i32 0, i32 47
  %66 = load ptr, ptr %65, align 8, !tbaa !47
  %67 = icmp ne ptr %66, null
  br i1 %67, label %68, label %72

68:                                               ; preds = %63
  %69 = load ptr, ptr %7, align 8, !tbaa !36
  %70 = getelementptr inbounds nuw %struct.h5tool_format_t, ptr %69, i32 0, i32 47
  %71 = load ptr, ptr %70, align 8, !tbaa !47
  br label %73

72:                                               ; preds = %63
  br label %73

73:                                               ; preds = %72, %68
  %74 = phi ptr [ %71, %68 ], [ @.str.88, %72 ]
  %75 = load ptr, ptr %6, align 8, !tbaa !9
  %76 = call i32 @fputs(ptr noundef %74, ptr noundef %75)
  br label %77

77:                                               ; preds = %73, %60
  br label %78

78:                                               ; preds = %77
  br label %79

79:                                               ; preds = %78
  br label %80

80:                                               ; preds = %79, %32
  br label %81

81:                                               ; preds = %80
  br label %82

82:                                               ; preds = %81
  br label %83

83:                                               ; preds = %82
  %84 = load ptr, ptr %7, align 8, !tbaa !36
  %85 = load i64, ptr %9, align 8, !tbaa !7
  %86 = load ptr, ptr %8, align 8, !tbaa !38
  %87 = call ptr @h5tools_str_prefix(ptr noundef %11, ptr noundef %84, i64 noundef %85, ptr noundef %86)
  br label %88

88:                                               ; preds = %83
  br label %89

89:                                               ; preds = %88
  br label %90

90:                                               ; preds = %89
  %91 = load ptr, ptr %8, align 8, !tbaa !38
  %92 = getelementptr inbounds nuw %struct.h5tools_context_t, ptr %91, i32 0, i32 10
  %93 = load i32, ptr %92, align 8, !tbaa !48
  %94 = icmp ugt i32 %93, 0
  br i1 %94, label %95, label %99

95:                                               ; preds = %90
  %96 = load ptr, ptr %8, align 8, !tbaa !38
  %97 = getelementptr inbounds nuw %struct.h5tools_context_t, ptr %96, i32 0, i32 10
  %98 = load i32, ptr %97, align 8, !tbaa !48
  store i32 %98, ptr %15, align 4, !tbaa !3
  br label %103

99:                                               ; preds = %90
  %100 = load ptr, ptr %8, align 8, !tbaa !38
  %101 = getelementptr inbounds nuw %struct.h5tools_context_t, ptr %100, i32 0, i32 11
  %102 = load i32, ptr %101, align 4, !tbaa !49
  store i32 %102, ptr %15, align 4, !tbaa !3
  br label %103

103:                                              ; preds = %99, %95
  %104 = load ptr, ptr %7, align 8, !tbaa !36
  %105 = getelementptr inbounds nuw %struct.h5tool_format_t, ptr %104, i32 0, i32 58
  %106 = load i32, ptr %105, align 8, !tbaa !50
  %107 = icmp ne i32 %106, 0
  br i1 %107, label %108, label %132

108:                                              ; preds = %103
  store i32 0, ptr %14, align 4, !tbaa !3
  br label %109

109:                                              ; preds = %128, %108
  %110 = load i32, ptr %14, align 4, !tbaa !3
  %111 = load i32, ptr %15, align 4, !tbaa !3
  %112 = sub i32 %111, 1
  %113 = icmp ult i32 %110, %112
  br i1 %113, label %114, label %131

114:                                              ; preds = %109
  br label %115

115:                                              ; preds = %114
  %116 = load ptr, ptr %6, align 8, !tbaa !9
  %117 = icmp ne ptr %116, null
  br i1 %117, label %118, label %125

118:                                              ; preds = %115
  %119 = load ptr, ptr %7, align 8, !tbaa !36
  %120 = getelementptr inbounds nuw %struct.h5tool_format_t, ptr %119, i32 0, i32 49
  %121 = load ptr, ptr %120, align 8, !tbaa !51
  %122 = call ptr @h5tools_str_fmt(ptr noundef %12, i64 noundef 0, ptr noundef %121)
  %123 = load ptr, ptr %6, align 8, !tbaa !9
  %124 = call i32 @fputs(ptr noundef %122, ptr noundef %123)
  br label %125

125:                                              ; preds = %118, %115
  br label %126

126:                                              ; preds = %125
  br label %127

127:                                              ; preds = %126
  br label %128

128:                                              ; preds = %127
  %129 = load i32, ptr %14, align 4, !tbaa !3
  %130 = add i32 %129, 1
  store i32 %130, ptr %14, align 4, !tbaa !3
  br label %109, !llvm.loop !52

131:                                              ; preds = %109
  br label %132

132:                                              ; preds = %131, %103
  %133 = load i64, ptr %9, align 8, !tbaa !7
  %134 = icmp eq i64 %133, 0
  br i1 %134, label %135, label %157

135:                                              ; preds = %132
  %136 = load i32, ptr %10, align 4, !tbaa !3
  %137 = icmp eq i32 %136, 0
  br i1 %137, label %138, label %157

138:                                              ; preds = %135
  %139 = load ptr, ptr %7, align 8, !tbaa !36
  %140 = getelementptr inbounds nuw %struct.h5tool_format_t, ptr %139, i32 0, i32 44
  %141 = load ptr, ptr %140, align 8, !tbaa !53
  %142 = icmp ne ptr %141, null
  br i1 %142, label %143, label %157

143:                                              ; preds = %138
  br label %144

144:                                              ; preds = %143
  %145 = load ptr, ptr %6, align 8, !tbaa !9
  %146 = icmp ne ptr %145, null
  br i1 %146, label %147, label %154

147:                                              ; preds = %144
  %148 = load ptr, ptr %7, align 8, !tbaa !36
  %149 = getelementptr inbounds nuw %struct.h5tool_format_t, ptr %148, i32 0, i32 44
  %150 = load ptr, ptr %149, align 8, !tbaa !53
  %151 = call ptr @h5tools_str_fmt(ptr noundef %11, i64 noundef 0, ptr noundef %150)
  %152 = load ptr, ptr %6, align 8, !tbaa !9
  %153 = call i32 @fputs(ptr noundef %151, ptr noundef %152)
  br label %154

154:                                              ; preds = %147, %144
  br label %155

155:                                              ; preds = %154
  br label %156

156:                                              ; preds = %155
  br label %194

157:                                              ; preds = %138, %135, %132
  %158 = load i32, ptr %10, align 4, !tbaa !3
  %159 = icmp ne i32 %158, 0
  br i1 %159, label %160, label %179

160:                                              ; preds = %157
  %161 = load ptr, ptr %7, align 8, !tbaa !36
  %162 = getelementptr inbounds nuw %struct.h5tool_format_t, ptr %161, i32 0, i32 45
  %163 = load ptr, ptr %162, align 8, !tbaa !54
  %164 = icmp ne ptr %163, null
  br i1 %164, label %165, label %179

165:                                              ; preds = %160
  br label %166

166:                                              ; preds = %165
  %167 = load ptr, ptr %6, align 8, !tbaa !9
  %168 = icmp ne ptr %167, null
  br i1 %168, label %169, label %176

169:                                              ; preds = %166
  %170 = load ptr, ptr %7, align 8, !tbaa !36
  %171 = getelementptr inbounds nuw %struct.h5tool_format_t, ptr %170, i32 0, i32 45
  %172 = load ptr, ptr %171, align 8, !tbaa !54
  %173 = call ptr @h5tools_str_fmt(ptr noundef %11, i64 noundef 0, ptr noundef %172)
  %174 = load ptr, ptr %6, align 8, !tbaa !9
  %175 = call i32 @fputs(ptr noundef %173, ptr noundef %174)
  br label %176

176:                                              ; preds = %169, %166
  br label %177

177:                                              ; preds = %176
  br label %178

178:                                              ; preds = %177
  br label %193

179:                                              ; preds = %160, %157
  br label %180

180:                                              ; preds = %179
  %181 = load ptr, ptr %6, align 8, !tbaa !9
  %182 = icmp ne ptr %181, null
  br i1 %182, label %183, label %190

183:                                              ; preds = %180
  %184 = load ptr, ptr %7, align 8, !tbaa !36
  %185 = getelementptr inbounds nuw %struct.h5tool_format_t, ptr %184, i32 0, i32 43
  %186 = load ptr, ptr %185, align 8, !tbaa !55
  %187 = call ptr @h5tools_str_fmt(ptr noundef %11, i64 noundef 0, ptr noundef %186)
  %188 = load ptr, ptr %6, align 8, !tbaa !9
  %189 = call i32 @fputs(ptr noundef %187, ptr noundef %188)
  br label %190

190:                                              ; preds = %183, %180
  br label %191

191:                                              ; preds = %190
  br label %192

192:                                              ; preds = %191
  br label %193

193:                                              ; preds = %192, %178
  br label %194

194:                                              ; preds = %193, %156
  %195 = call i64 @h5tools_str_len(ptr noundef %11)
  store i64 %195, ptr %13, align 8, !tbaa !7
  br label %196

196:                                              ; preds = %194
  br label %197

197:                                              ; preds = %196
  br label %198

198:                                              ; preds = %197
  store i32 0, ptr %14, align 4, !tbaa !3
  br label %199

199:                                              ; preds = %230, %198
  %200 = load i32, ptr %14, align 4, !tbaa !3
  %201 = load i32, ptr %15, align 4, !tbaa !3
  %202 = icmp ult i32 %200, %201
  br i1 %202, label %203, label %233

203:                                              ; preds = %199
  %204 = load ptr, ptr %7, align 8, !tbaa !36
  %205 = getelementptr inbounds nuw %struct.h5tool_format_t, ptr %204, i32 0, i32 58
  %206 = load i32, ptr %205, align 8, !tbaa !50
  %207 = icmp ne i32 %206, 0
  br i1 %207, label %225, label %208

208:                                              ; preds = %203
  br label %209

209:                                              ; preds = %208
  %210 = load ptr, ptr %6, align 8, !tbaa !9
  %211 = icmp ne ptr %210, null
  br i1 %211, label %212, label %219

212:                                              ; preds = %209
  %213 = load ptr, ptr %7, align 8, !tbaa !36
  %214 = getelementptr inbounds nuw %struct.h5tool_format_t, ptr %213, i32 0, i32 49
  %215 = load ptr, ptr %214, align 8, !tbaa !51
  %216 = call ptr @h5tools_str_fmt(ptr noundef %11, i64 noundef 0, ptr noundef %215)
  %217 = load ptr, ptr %6, align 8, !tbaa !9
  %218 = call i32 @fputs(ptr noundef %216, ptr noundef %217)
  br label %219

219:                                              ; preds = %212, %209
  br label %220

220:                                              ; preds = %219
  br label %221

221:                                              ; preds = %220
  %222 = call i64 @h5tools_str_len(ptr noundef %11)
  %223 = load i64, ptr %13, align 8, !tbaa !7
  %224 = add i64 %223, %222
  store i64 %224, ptr %13, align 8, !tbaa !7
  br label %229

225:                                              ; preds = %203
  %226 = call i64 @h5tools_str_len(ptr noundef %12)
  %227 = load i64, ptr %13, align 8, !tbaa !7
  %228 = add i64 %227, %226
  store i64 %228, ptr %13, align 8, !tbaa !7
  br label %229

229:                                              ; preds = %225, %221
  br label %230

230:                                              ; preds = %229
  %231 = load i32, ptr %14, align 4, !tbaa !3
  %232 = add i32 %231, 1
  store i32 %232, ptr %14, align 4, !tbaa !3
  br label %199, !llvm.loop !56

233:                                              ; preds = %199
  br label %234

234:                                              ; preds = %233
  br label %235

235:                                              ; preds = %234
  br label %236

236:                                              ; preds = %235
  %237 = load i64, ptr %13, align 8, !tbaa !7
  %238 = load ptr, ptr %8, align 8, !tbaa !38
  %239 = getelementptr inbounds nuw %struct.h5tools_context_t, ptr %238, i32 0, i32 7
  store i64 %237, ptr %239, align 8, !tbaa !57
  %240 = load ptr, ptr %8, align 8, !tbaa !38
  %241 = getelementptr inbounds nuw %struct.h5tools_context_t, ptr %240, i32 0, i32 0
  store i64 %237, ptr %241, align 8, !tbaa !44
  %242 = load ptr, ptr %8, align 8, !tbaa !38
  %243 = getelementptr inbounds nuw %struct.h5tools_context_t, ptr %242, i32 0, i32 1
  store i64 0, ptr %243, align 8, !tbaa !58
  %244 = load ptr, ptr %8, align 8, !tbaa !38
  %245 = getelementptr inbounds nuw %struct.h5tools_context_t, ptr %244, i32 0, i32 2
  store i32 0, ptr %245, align 8, !tbaa !40
  br label %246

246:                                              ; preds = %236
  br label %247

247:                                              ; preds = %246
  br label %248

248:                                              ; preds = %247
  call void @h5tools_str_close(ptr noundef %11)
  call void @h5tools_str_close(ptr noundef %12)
  br label %249

249:                                              ; preds = %248
  br label %250

250:                                              ; preds = %249
  br label %251

251:                                              ; preds = %250
  store i32 0, ptr %16, align 4
  br label %252

252:                                              ; preds = %251, %25, %19
  call void @llvm.lifetime.end.p0(i64 4, ptr %15) #10
  call void @llvm.lifetime.end.p0(i64 4, ptr %14) #10
  call void @llvm.lifetime.end.p0(i64 8, ptr %13) #10
  call void @llvm.lifetime.end.p0(i64 24, ptr %12) #10
  call void @llvm.lifetime.end.p0(i64 24, ptr %11) #10
  %253 = load i32, ptr %16, align 4
  switch i32 %253, label %255 [
    i32 0, label %254
    i32 1, label %254
  ]

254:                                              ; preds = %252, %252
  ret void

255:                                              ; preds = %252
  unreachable
}