; Function Attrs: nounwind uwtable
define void @h5tools_simple_prefix(ptr noundef captures(address_is_null) %0, ptr noundef %1, ptr noundef %2, i64 noundef %3, i32 noundef %4) local_unnamed_addr #0 {
  %6 = alloca %struct.h5tools_str_t, align 8
  %7 = alloca %struct.h5tools_str_t, align 8
  call void @llvm.lifetime.start.p0(i64 24, ptr nonnull %6) #16
  call void @llvm.lifetime.start.p0(i64 24, ptr nonnull %7) #16
  %8 = icmp eq ptr %0, null
  br i1 %8, label %67, label %9

9:                                                ; preds = %5
  %10 = getelementptr inbounds nuw i8, ptr %2, i64 16
  %11 = load i32, ptr %10, align 8, !tbaa !30
  %.not = icmp eq i32 %11, 0
  br i1 %.not, label %67, label %12

12:                                               ; preds = %9
  call void @llvm.memset.p0.i64(ptr noundef nonnull align 8 dereferenceable(24) %6, i8 0, i64 24, i1 false)
  call void @llvm.memset.p0.i64(ptr noundef nonnull align 8 dereferenceable(24) %7, i8 0, i64 24, i1 false)
  %13 = load i64, ptr %2, align 8, !tbaa !34
  %.not62 = icmp eq i64 %13, 0
  br i1 %.not62, label %23, label %14

14:                                               ; preds = %12
  %15 = getelementptr inbounds nuw i8, ptr %1, i64 360
  %16 = load ptr, ptr %15, align 8, !tbaa !35
  %.not63 = icmp eq ptr %16, null
  %spec.select = select i1 %.not63, ptr @.str.88, ptr %16
  %17 = tail call i32 @fputs(ptr noundef nonnull %spec.select, ptr noundef nonnull %0)
  %18 = tail call i32 @putc(i32 noundef 10, ptr noundef nonnull %0)
  %19 = getelementptr inbounds nuw i8, ptr %1, i64 368
  %20 = load ptr, ptr %19, align 8, !tbaa !37
  %.not64 = icmp eq ptr %20, null
  %21 = select i1 %.not64, ptr @.str.88, ptr %20
  %22 = tail call i32 @fputs(ptr noundef nonnull %21, ptr noundef nonnull %0)
  br label %23

23:                                               ; preds = %12, %14
  %24 = call ptr @h5tools_str_prefix(ptr noundef nonnull %6, ptr noundef %1, i64 noundef %3, ptr noundef nonnull %2) #16
  %25 = getelementptr inbounds nuw i8, ptr %2, i64 568
  %26 = load i32, ptr %25, align 8, !tbaa !38
  %.not65 = icmp eq i32 %26, 0
  br i1 %.not65, label %27, label %30

27:                                               ; preds = %23
  %28 = getelementptr inbounds nuw i8, ptr %2, i64 572
  %29 = load i32, ptr %28, align 4, !tbaa !39
  br label %30

30:                                               ; preds = %23, %27
  %.0 = phi i32 [ %29, %27 ], [ %26, %23 ]
  %31 = getelementptr inbounds nuw i8, ptr %1, i64 448
  %32 = load i32, ptr %31, align 8, !tbaa !40
  %.not66 = icmp eq i32 %32, 0
  br i1 %.not66, label %.loopexit, label %.preheader

.preheader:                                       ; preds = %30
  %33 = add i32 %.0, -1
  %.not75 = icmp eq i32 %33, 0
  br i1 %.not75, label %.loopexit, label %.lr.ph

.lr.ph:                                           ; preds = %.preheader
  %34 = getelementptr inbounds nuw i8, ptr %1, i64 384
  br label %35

35:                                               ; preds = %.lr.ph, %35
  %.05371 = phi i32 [ 0, %.lr.ph ], [ %39, %35 ]
  %36 = load ptr, ptr %34, align 8, !tbaa !41
  %37 = call ptr @h5tools_str_fmt(ptr noundef nonnull %7, i64 noundef 0, ptr noundef %36) #16
  %38 = call i32 @fputs(ptr noundef %37, ptr noundef nonnull %0)
  %39 = add nuw i32 %.05371, 1
  %exitcond.not = icmp eq i32 %39, %33
  br i1 %exitcond.not, label %.loopexit, label %35, !llvm.loop !42

.loopexit:                                        ; preds = %35, %.preheader, %30
  %40 = icmp eq i64 %3, 0
  %41 = icmp eq i32 %4, 0
  %or.cond = and i1 %40, %41
  br i1 %or.cond, label %42, label %45

42:                                               ; preds = %.loopexit
  %43 = getelementptr inbounds nuw i8, ptr %1, i64 344
  %44 = load ptr, ptr %43, align 8, !tbaa !43
  %.not67 = icmp eq ptr %44, null
  br i1 %.not67, label %.thread, label %51

45:                                               ; preds = %.loopexit
  br i1 %41, label %.thread, label %46

46:                                               ; preds = %45
  %47 = getelementptr inbounds nuw i8, ptr %1, i64 352
  %48 = load ptr, ptr %47, align 8, !tbaa !44
  %.not69 = icmp eq ptr %48, null
  br i1 %.not69, label %.thread, label %51

.thread:                                          ; preds = %42, %46, %45
  %49 = getelementptr inbounds nuw i8, ptr %1, i64 336
  %50 = load ptr, ptr %49, align 8, !tbaa !45
  br label %51

51:                                               ; preds = %46, %42, %.thread
  %.sink78 = phi ptr [ %50, %.thread ], [ %44, %42 ], [ %48, %46 ]
  %52 = call ptr @h5tools_str_fmt(ptr noundef nonnull %6, i64 noundef 0, ptr noundef %.sink78) #16
  %53 = call i32 @fputs(ptr noundef %52, ptr noundef nonnull %0)
  %54 = call i64 @h5tools_str_len(ptr noundef nonnull %6) #16
  %.not76 = icmp eq i32 %.0, 0
  br i1 %.not76, label %._crit_edge, label %.lr.ph74

.lr.ph74:                                         ; preds = %51
  %55 = getelementptr inbounds nuw i8, ptr %1, i64 384
  br label %56

56:                                               ; preds = %.lr.ph74, %62
  %.173 = phi i32 [ 0, %.lr.ph74 ], [ %64, %62 ]
  %.05472 = phi i64 [ %54, %.lr.ph74 ], [ %.155, %62 ]
  %57 = load i32, ptr %31, align 8, !tbaa !40
  %.not70 = icmp eq i32 %57, 0
  br i1 %.not70, label %58, label %62

58:                                               ; preds = %56
  %59 = load ptr, ptr %55, align 8, !tbaa !41
  %60 = call ptr @h5tools_str_fmt(ptr noundef nonnull %6, i64 noundef 0, ptr noundef %59) #16
  %61 = call i32 @fputs(ptr noundef %60, ptr noundef nonnull %0)
  br label %62

62:                                               ; preds = %56, %58
  %.sink = phi ptr [ %6, %58 ], [ %7, %56 ]
  %63 = call i64 @h5tools_str_len(ptr noundef nonnull %.sink) #16
  %.155 = add i64 %63, %.05472
  %64 = add nuw i32 %.173, 1
  %exitcond77.not = icmp eq i32 %64, %.0
  br i1 %exitcond77.not, label %._crit_edge, label %56, !llvm.loop !46

._crit_edge:                                      ; preds = %62, %51
  %.054.lcssa = phi i64 [ %54, %51 ], [ %.155, %62 ]
  %65 = getelementptr inbounds nuw i8, ptr %2, i64 544
  store i64 %.054.lcssa, ptr %65, align 8, !tbaa !47
  store i64 %.054.lcssa, ptr %2, align 8, !tbaa !34
  %66 = getelementptr inbounds nuw i8, ptr %2, i64 8
  store i64 0, ptr %66, align 8, !tbaa !48
  store i32 0, ptr %10, align 8, !tbaa !30
  call void @h5tools_str_close(ptr noundef nonnull %6) #16
  call void @h5tools_str_close(ptr noundef nonnull %7) #16
  br label %67

67:                                               ; preds = %9, %5, %._crit_edge
  call void @llvm.lifetime.end.p0(i64 24, ptr nonnull %7) #16
  call void @llvm.lifetime.end.p0(i64 24, ptr nonnull %6) #16
  ret void
}